target datalayout = "e-m:e-p270:32:32-p271:32:32-p272:64:64-i64:64-i128:128-f80:128-n8:16:32:64-S128"
target triple = "x86_64-pc-linux-gnu"

%"class.icu_77::UnicodeString" = type { %"class.icu_77::Replaceable", %"union.icu_77::UnicodeString::StackBufferOrFields" }
%"class.icu_77::Replaceable" = type { %"class.icu_77::UObject" }
%"class.icu_77::UObject" = type { ptr }
%"union.icu_77::UnicodeString::StackBufferOrFields" = type { %struct.anon.0, [32 x i8] }
%struct.anon.0 = type { i16, i32, i32, ptr }
%struct.anon = type { i16, [27 x i16] }

; Function Attrs: inlinehint mustprogress nounwind uwtable
define linkonce_odr noundef i32 @_ZNK6icu_7713UnicodeString14getShortLengthEv(ptr noundef nonnull align 8 dereferenceable(64) %0) #1 comdat align 2 {
  %2 = alloca ptr, align 8
  store ptr %0, ptr %2, align 8, !tbaa !3
  %3 = load ptr, ptr %2, align 8
  %4 = getelementptr inbounds nuw %"class.icu_77::UnicodeString", ptr %3, i32 0, i32 1
  %5 = getelementptr inbounds nuw %struct.anon.0, ptr %4, i32 0, i32 0
  %6 = load i16, ptr %5, align 8, !tbaa !12
  %7 = sext i16 %6 to i32
  %8 = ashr i32 %7, 5
  ret i32 %8
}

; Function Attrs: inlinehint mustprogress nounwind uwtable
define linkonce_odr noundef signext i8 @_ZNK6icu_7713UnicodeString14hasShortLengthEv(ptr noundef nonnull align 8 dereferenceable(64) %0) #1 comdat align 2 {
  %2 = alloca ptr, align 8
  store ptr %0, ptr %2, align 8, !tbaa !3
  %3 = load ptr, ptr %2, align 8
  %4 = getelementptr inbounds nuw %"class.icu_77::UnicodeString", ptr %3, i32 0, i32 1
  %5 = getelementptr inbounds nuw %struct.anon.0, ptr %4, i32 0, i32 0
  %6 = load i16, ptr %5, align 8, !tbaa !12
  %7 = sext i16 %6 to i32
  %8 = icmp sge i32 %7, 0
  %9 = zext i1 %8 to i8
  ret i8 %9
}

; Function Attrs: inlinehint mustprogress uwtable
define linkonce_odr noundef i32 @_ZNK6icu_7713UnicodeString6lengthEv(ptr noundef nonnull align 8 dereferenceable(64) %0) #5 comdat align 2 {
  %2 = alloca ptr, align 8
  store ptr %0, ptr %2, align 8, !tbaa !3
  %3 = load ptr, ptr %2, align 8
  %4 = call noundef signext i8 @_ZNK6icu_7713UnicodeString14hasShortLengthEv(ptr noundef nonnull align 8 dereferenceable(64) %3)
  %5 = icmp ne i8 %4, 0
  br i1 %5, label %6, label %8

6:                                                ; preds = %1
  %7 = call noundef i32 @_ZNK6icu_7713UnicodeString14getShortLengthEv(ptr noundef nonnull align 8 dereferenceable(64) %3)
  br label %12

8:                                                ; preds = %1
  %9 = getelementptr inbounds nuw %"class.icu_77::UnicodeString", ptr %3, i32 0, i32 1
  %10 = getelementptr inbounds nuw %struct.anon.0, ptr %9, i32 0, i32 1
  %11 = load i32, ptr %10, align 4, !tbaa !12
  br label %12

12:                                               ; preds = %8, %6
  %13 = phi i32 [ %7, %6 ], [ %11, %8 ]
  ret i32 %13
}

; Function Attrs: inlinehint mustprogress nounwind uwtable
define linkonce_odr noundef ptr @_ZNK6icu_7713UnicodeString13getArrayStartEv(ptr noundef nonnull align 8 dereferenceable(64) %0) #1 comdat align 2 {
  %2 = alloca ptr, align 8
  store ptr %0, ptr %2, align 8, !tbaa !3
  %3 = load ptr, ptr %2, align 8
  %4 = getelementptr inbounds nuw %"class.icu_77::UnicodeString", ptr %3, i32 0, i32 1
  %5 = getelementptr inbounds nuw %struct.anon.0, ptr %4, i32 0, i32 0
  %6 = load i16, ptr %5, align 8, !tbaa !12
  %7 = sext i16 %6 to i32
  %8 = and i32 %7, 2
  %9 = icmp ne i32 %8, 0
  br i1 %9, label %10, label %14

10:                                               ; preds = %1
  %11 = getelementptr inbounds nuw %"class.icu_77::UnicodeString", ptr %3, i32 0, i32 1
  %12 = getelementptr inbounds nuw %struct.anon, ptr %11, i32 0, i32 1
  %13 = getelementptr inbounds [27 x i16], ptr %12, i64 0, i64 0
  br label %18

14:                                               ; preds = %1
  %15 = getelementptr inbounds nuw %"class.icu_77::UnicodeString", ptr %3, i32 0, i32 1
  %16 = getelementptr inbounds nuw %struct.anon.0, ptr %15, i32 0, i32 3
  %17 = load ptr, ptr %16, align 8, !tbaa !12
  br label %18

18:                                               ; preds = %14, %10
  %19 = phi ptr [ %13, %10 ], [ %17, %14 ]
  ret ptr %19
}

; Function Attrs: inlinehint mustprogress uwtable
define linkonce_odr void @_ZNK6icu_7713UnicodeString10pinIndicesERiS1_(ptr noundef nonnull align 8 dereferenceable(64) %0, ptr noundef nonnull align 4 dereferenceable(4) %1, ptr noundef nonnull align 4 dereferenceable(4) %2) #5 comdat align 2 {
  %4 = alloca ptr, align 8
  %5 = alloca ptr, align 8
  %6 = alloca ptr, align 8
  %7 = alloca i32, align 4
  store ptr %0, ptr %4, align 8, !tbaa !3
  store ptr %1, ptr %5, align 8, !tbaa !26
  store ptr %2, ptr %6, align 8, !tbaa !26
  %8 = load ptr, ptr %4, align 8
  call void @llvm.lifetime.start.p0(i64 4, ptr %7) #9
  %9 = call noundef i32 @_ZNK6icu_7713UnicodeString6lengthEv(ptr noundef nonnull align 8 dereferenceable(64) %8)
  store i32 %9, ptr %7, align 4, !tbaa !15
  %10 = load ptr, ptr %5, align 8, !tbaa !26
  %11 = load i32, ptr %10, align 4, !tbaa !15
  %12 = icmp slt i32 %11, 0
  br i1 %12, label %13, label %15

13:                                               ; preds = %3
  %14 = load ptr, ptr %5, align 8, !tbaa !26
  store i32 0, ptr %14, align 4, !tbaa !15
  br label %24

15:                                               ; preds = %3
  %16 = load ptr, ptr %5, align 8, !tbaa !26
  %17 = load i32, ptr %16, align 4, !tbaa !15
  %18 = load i32, ptr %7, align 4, !tbaa !15
  %19 = icmp sgt i32 %17, %18
  br i1 %19, label %20, label %23

20:                                               ; preds = %15
  %21 = load i32, ptr %7, align 4, !tbaa !15
  %22 = load ptr, ptr %5, align 8, !tbaa !26
  store i32 %21, ptr %22, align 4, !tbaa !15
  br label %23

23:                                               ; preds = %20, %15
  br label %24

24:                                               ; preds = %23, %13
  %25 = load ptr, ptr %6, align 8, !tbaa !26
  %26 = load i32, ptr %25, align 4, !tbaa !15
  %27 = icmp slt i32 %26, 0
  br i1 %27, label %28, label %30

28:                                               ; preds = %24
  %29 = load ptr, ptr %6, align 8, !tbaa !26
  store i32 0, ptr %29, align 4, !tbaa !15
  br label %45

30:                                               ; preds = %24
  %31 = load ptr, ptr %6, align 8, !tbaa !26
  %32 = load i32, ptr %31, align 4, !tbaa !15
  %33 = load i32, ptr %7, align 4, !tbaa !15
  %34 = load ptr, ptr %5, align 8, !tbaa !26
  %35 = load i32, ptr %34, align 4, !tbaa !15
  %36 = sub nsw i32 %33, %35
  %37 = icmp sgt i32 %32, %36
  br i1 %37, label %38, label %44

38:                                               ; preds = %30
  %39 = load i32, ptr %7, align 4, !tbaa !15
  %40 = load ptr, ptr %5, align 8, !tbaa !26
  %41 = load i32, ptr %40, align 4, !tbaa !15
  %42 = sub nsw i32 %39, %41
  %43 = load ptr, ptr %6, align 8, !tbaa !26
  store i32 %42, ptr %43, align 4, !tbaa !15
  br label %44

44:                                               ; preds = %38, %30
  br label %45

45:                                               ; preds = %44, %28
  call void @llvm.lifetime.end.p0(i64 4, ptr %7) #9
  ret void
}

; Function Attrs: mustprogress uwtable
define noundef i32 @_ZNK6icu_7713UnicodeString7extractEiiPcjPKc(ptr noundef nonnull align 8 dereferenceable(64) %0, i32 noundef %1, i32 noundef %2, ptr noundef %3, i32 noundef %4, ptr noundef %5) #0 align 2 {
  %7 = alloca i32, align 4
  %8 = alloca ptr, align 8
  %9 = alloca i32, align 4
  %10 = alloca i32, align 4
  %11 = alloca ptr, align 8
  %12 = alloca i32, align 4
  %13 = alloca ptr, align 8
  %14 = alloca i32, align 4
  %15 = alloca ptr, align 8
  %16 = alloca ptr, align 8
  %17 = alloca i32, align 4
  %18 = alloca i32, align 4
  %19 = alloca ptr, align 8
  %20 = alloca i32, align 4
  store ptr %0, ptr %8, align 8, !tbaa !3
  store i32 %1, ptr %9, align 4, !tbaa !15
  store i32 %2, ptr %10, align 4, !tbaa !15
  store ptr %3, ptr %11, align 8, !tbaa !8
  store i32 %4, ptr %12, align 4, !tbaa !15
  store ptr %5, ptr %13, align 8, !tbaa !8
  %21 = load ptr, ptr %8, align 8
  %22 = load i32, ptr %12, align 4, !tbaa !15
  %23 = icmp ugt i32 %22, 0
  br i1 %23, label %24, label %28

24:                                               ; preds = %6
  %25 = load ptr, ptr %11, align 8, !tbaa !8
  %26 = icmp eq ptr %25, null
  br i1 %26, label %27, label %28

27:                                               ; preds = %24
  store i32 0, ptr %7, align 4
  br label %186

28:                                               ; preds = %24, %6
  call void @_ZNK6icu_7713UnicodeString10pinIndicesERiS1_(ptr noundef nonnull align 8 dereferenceable(64) %21, ptr noundef nonnull align 4 dereferenceable(4) %9, ptr noundef nonnull align 4 dereferenceable(4) %10)
  call void @llvm.lifetime.start.p0(i64 4, ptr %14) #9
  %29 = load i32, ptr %12, align 4, !tbaa !15
  %30 = icmp ult i32 %29, 2147483647
  br i1 %30, label %31, label %33

31:                                               ; preds = %28
  %32 = load i32, ptr %12, align 4, !tbaa !15
  store i32 %32, ptr %14, align 4, !tbaa !15
  br label %54

33:                                               ; preds = %28
  call void @llvm.lifetime.start.p0(i64 8, ptr %15) #9
  %34 = load ptr, ptr %11, align 8, !tbaa !8
  %35 = ptrtoint ptr %34 to i64
  %36 = add i64 %35, 2147483647
  %37 = load ptr, ptr %11, align 8, !tbaa !8
  %38 = ptrtoint ptr %37 to i64
  %39 = icmp ugt i64 %36, %38
  br i1 %39, label %40, label %44

40:                                               ; preds = %33
  %41 = load ptr, ptr %11, align 8, !tbaa !8
  %42 = ptrtoint ptr %41 to i64
  %43 = add i64 %42, 2147483647
  br label %45

44:                                               ; preds = %33
  br label %45

45:                                               ; preds = %44, %40
  %46 = phi i64 [ %43, %40 ], [ -1, %44 ]
  %47 = inttoptr i64 %46 to ptr
  store ptr %47, ptr %15, align 8, !tbaa !8
  %48 = load ptr, ptr %15, align 8, !tbaa !8
  %49 = load ptr, ptr %11, align 8, !tbaa !8
  %50 = ptrtoint ptr %48 to i64
  %51 = ptrtoint ptr %49 to i64
  %52 = sub i64 %50, %51
  %53 = trunc i64 %52 to i32
  store i32 %53, ptr %14, align 4, !tbaa !15
  call void @llvm.lifetime.end.p0(i64 8, ptr %15) #9
  br label %54

54:                                               ; preds = %45, %31
  call void @llvm.lifetime.start.p0(i64 8, ptr %16) #9
  call void @llvm.lifetime.start.p0(i64 4, ptr %17) #9
  store i32 0, ptr %17, align 4, !tbaa !17
  %55 = load i32, ptr %10, align 4, !tbaa !15
  %56 = icmp eq i32 %55, 0
  br i1 %56, label %57, label %61

57:                                               ; preds = %54
  %58 = load ptr, ptr %11, align 8, !tbaa !8
  %59 = load i32, ptr %14, align 4, !tbaa !15
  %60 = call i32 @u_terminateChars_77(ptr noundef %58, i32 noundef %59, i32 noundef 0, ptr noundef %17)
  store i32 %60, ptr %7, align 4
  store i32 1, ptr %18, align 4
  br label %185

61:                                               ; preds = %54
  %62 = load ptr, ptr %13, align 8, !tbaa !8
  %63 = icmp eq ptr %62, null
  br i1 %63, label %64, label %142

64:                                               ; preds = %61
  call void @llvm.lifetime.start.p0(i64 8, ptr %19) #9
  %65 = call ptr @ucnv_getDefaultName_77()
  store ptr %65, ptr %19, align 8, !tbaa !8
  %66 = load ptr, ptr %19, align 8, !tbaa !8
  %67 = getelementptr inbounds i8, ptr %66, i64 0
  %68 = load i8, ptr %67, align 1, !tbaa !12
  %69 = sext i8 %68 to i32
  %70 = icmp eq i32 %69, 85
  br i1 %70, label %71, label %83

71:                                               ; preds = %64
  %72 = load ptr, ptr %19, align 8, !tbaa !8
  %73 = getelementptr inbounds i8, ptr %72, i64 1
  %74 = load i8, ptr %73, align 1, !tbaa !12
  %75 = sext i8 %74 to i32
  %76 = icmp eq i32 %75, 84
  br i1 %76, label %77, label %137

77:                                               ; preds = %71
  %78 = load ptr, ptr %19, align 8, !tbaa !8
  %79 = getelementptr inbounds i8, ptr %78, i64 2
  %80 = load i8, ptr %79, align 1, !tbaa !12
  %81 = sext i8 %80 to i32
  %82 = icmp eq i32 %81, 70
  br i1 %82, label %101, label %137

83:                                               ; preds = %64
  %84 = load ptr, ptr %19, align 8, !tbaa !8
  %85 = getelementptr inbounds i8, ptr %84, i64 0
  %86 = load i8, ptr %85, align 1, !tbaa !12
  %87 = sext i8 %86 to i32
  %88 = icmp eq i32 %87, 117
  br i1 %88, label %89, label %137

89:                                               ; preds = %83
  %90 = load ptr, ptr %19, align 8, !tbaa !8
  %91 = getelementptr inbounds i8, ptr %90, i64 1
  %92 = load i8, ptr %91, align 1, !tbaa !12
  %93 = sext i8 %92 to i32
  %94 = icmp eq i32 %93, 116
  br i1 %94, label %95, label %137

95:                                               ; preds = %89
  %96 = load ptr, ptr %19, align 8, !tbaa !8
  %97 = getelementptr inbounds i8, ptr %96, i64 2
  %98 = load i8, ptr %97, align 1, !tbaa !12
  %99 = sext i8 %98 to i32
  %100 = icmp eq i32 %99, 102
  br i1 %100, label %101, label %137

101:                                              ; preds = %95, %77
  %102 = load ptr, ptr %19, align 8, !tbaa !8
  %103 = getelementptr inbounds i8, ptr %102, i64 3
  %104 = load i8, ptr %103, align 1, !tbaa !12
  %105 = sext i8 %104 to i32
  %106 = icmp eq i32 %105, 45
  br i1 %106, label %107, label %119

107:                                              ; preds = %101
  %108 = load ptr, ptr %19, align 8, !tbaa !8
  %109 = getelementptr inbounds i8, ptr %108, i64 4
  %110 = load i8, ptr %109, align 1, !tbaa !12
  %111 = sext i8 %110 to i32
  %112 = icmp eq i32 %111, 56
  br i1 %112, label %113, label %137

113:                                              ; preds = %107
  %114 = load ptr, ptr %19, align 8, !tbaa !8
  %115 = getelementptr inbounds i8, ptr %114, i64 5
  %116 = load i8, ptr %115, align 1, !tbaa !12
  %117 = sext i8 %116 to i32
  %118 = icmp eq i32 %117, 0
  br i1 %118, label %131, label %137

119:                                              ; preds = %101
  %120 = load ptr, ptr %19, align 8, !tbaa !8
  %121 = getelementptr inbounds i8, ptr %120, i64 3
  %122 = load i8, ptr %121, align 1, !tbaa !12
  %123 = sext i8 %122 to i32
  %124 = icmp eq i32 %123, 56
  br i1 %124, label %125, label %137

125:                                              ; preds = %119
  %126 = load ptr, ptr %19, align 8, !tbaa !8
  %127 = getelementptr inbounds i8, ptr %126, i64 4
  %128 = load i8, ptr %127, align 1, !tbaa !12
  %129 = sext i8 %128 to i32
  %130 = icmp eq i32 %129, 0
  br i1 %130, label %131, label %137

131:                                              ; preds = %125, %113
  %132 = load i32, ptr %9, align 4, !tbaa !15
  %133 = load i32, ptr %10, align 4, !tbaa !15
  %134 = load ptr, ptr %11, align 8, !tbaa !8
  %135 = load i32, ptr %14, align 4, !tbaa !15
  %136 = call noundef i32 @_ZNK6icu_7713UnicodeString6toUTF8EiiPci(ptr noundef nonnull align 8 dereferenceable(64) %21, i32 noundef %132, i32 noundef %133, ptr noundef %134, i32 noundef %135)
  store i32 %136, ptr %7, align 4
  store i32 1, ptr %18, align 4
  br label %139

137:                                              ; preds = %125, %119, %113, %107, %95, %89, %83, %77, %71
  %138 = call ptr @u_getDefaultConverter_77(ptr noundef %17)
  store ptr %138, ptr %16, align 8, !tbaa !19
  store i32 0, ptr %18, align 4
  br label %139

139:                                              ; preds = %137, %131
  call void @llvm.lifetime.end.p0(i64 8, ptr %19) #9
  %140 = load i32, ptr %18, align 4
  switch i32 %140, label %185 [
    i32 0, label %141
  ]

141:                                              ; preds = %139
  br label %170

142:                                              ; preds = %61
  %143 = load ptr, ptr %13, align 8, !tbaa !8
  %144 = load i8, ptr %143, align 1, !tbaa !12
  %145 = sext i8 %144 to i32
  %146 = icmp eq i32 %145, 0
  br i1 %146, label %147, label %166

147:                                              ; preds = %142
  call void @llvm.lifetime.start.p0(i64 4, ptr %20) #9
  %148 = load i32, ptr %10, align 4, !tbaa !15
  %149 = load i32, ptr %14, align 4, !tbaa !15
  %150 = icmp sle i32 %148, %149
  br i1 %150, label %151, label %153

151:                                              ; preds = %147
  %152 = load i32, ptr %10, align 4, !tbaa !15
  store i32 %152, ptr %20, align 4, !tbaa !15
  br label %155

153:                                              ; preds = %147
  %154 = load i32, ptr %14, align 4, !tbaa !15
  store i32 %154, ptr %20, align 4, !tbaa !15
  br label %155

155:                                              ; preds = %153, %151
  %156 = call noundef ptr @_ZNK6icu_7713UnicodeString13getArrayStartEv(ptr noundef nonnull align 8 dereferenceable(64) %21)
  %157 = load i32, ptr %9, align 4, !tbaa !15
  %158 = sext i32 %157 to i64
  %159 = getelementptr inbounds i16, ptr %156, i64 %158
  %160 = load ptr, ptr %11, align 8, !tbaa !8
  %161 = load i32, ptr %20, align 4, !tbaa !15
  call void @u_UCharsToChars_77(ptr noundef %159, ptr noundef %160, i32 noundef %161)
  %162 = load ptr, ptr %11, align 8, !tbaa !8
  %163 = load i32, ptr %14, align 4, !tbaa !15
  %164 = load i32, ptr %10, align 4, !tbaa !15
  %165 = call i32 @u_terminateChars_77(ptr noundef %162, i32 noundef %163, i32 noundef %164, ptr noundef %17)
  store i32 %165, ptr %7, align 4
  store i32 1, ptr %18, align 4
  call void @llvm.lifetime.end.p0(i64 4, ptr %20) #9
  br label %185

166:                                              ; preds = %142
  %167 = load ptr, ptr %13, align 8, !tbaa !8
  %168 = call ptr @ucnv_open_77(ptr noundef %167, ptr noundef %17)
  store ptr %168, ptr %16, align 8, !tbaa !19
  br label %169

169:                                              ; preds = %166
  br label %170

170:                                              ; preds = %169, %141
  %171 = load i32, ptr %9, align 4, !tbaa !15
  %172 = load i32, ptr %10, align 4, !tbaa !15
  %173 = load ptr, ptr %11, align 8, !tbaa !8
  %174 = load i32, ptr %14, align 4, !tbaa !15
  %175 = load ptr, ptr %16, align 8, !tbaa !19
  %176 = call noundef i32 @_ZNK6icu_7713UnicodeString9doExtractEiiPciP10UConverterR10UErrorCode(ptr noundef nonnull align 8 dereferenceable(64) %21, i32 noundef %171, i32 noundef %172, ptr noundef %173, i32 noundef %174, ptr noundef %175, ptr noundef nonnull align 4 dereferenceable(4) %17)
  store i32 %176, ptr %10, align 4, !tbaa !15
  %177 = load ptr, ptr %13, align 8, !tbaa !8
  %178 = icmp eq ptr %177, null
  br i1 %178, label %179, label %181

179:                                              ; preds = %170
  %180 = load ptr, ptr %16, align 8, !tbaa !19
  call void @u_releaseDefaultConverter_77(ptr noundef %180)
  br label %183

181:                                              ; preds = %170
  %182 = load ptr, ptr %16, align 8, !tbaa !19
  call void @ucnv_close_77(ptr noundef %182)
  br label %183

183:                                              ; preds = %181, %179
  %184 = load i32, ptr %10, align 4, !tbaa !15
  store i32 %184, ptr %7, align 4
  store i32 1, ptr %18, align 4
  br label %185

185:                                              ; preds = %183, %155, %139, %57
  call void @llvm.lifetime.end.p0(i64 4, ptr %17) #9
  call void @llvm.lifetime.end.p0(i64 8, ptr %16) #9
  call void @llvm.lifetime.end.p0(i64 4, ptr %14) #9
  br label %186

186:                                              ; preds = %185, %27
  %187 = load i32, ptr %7, align 4
  ret i32 %187
}