; Function Attrs: mustprogress uwtable
define noundef i32 @_ZNK6icu_7713UnicodeString7extractEiiPcjPKc(ptr noundef nonnull align 8 dereferenceable(64) %0, i32 noundef %1, i32 noundef %2, ptr noundef %3, i32 noundef %4, ptr noundef %5) local_unnamed_addr #0 align 2 {
  %7 = alloca i32, align 4
  %8 = icmp ne i32 %4, 0
  %9 = icmp eq ptr %3, null
  %or.cond = and i1 %9, %8
  br i1 %or.cond, label %89, label %.sink.split.i

.sink.split.i:                                    ; preds = %6
  %10 = getelementptr inbounds nuw i8, ptr %0, i64 8
  %11 = load i16, ptr %10, align 8, !tbaa !6
  %12 = icmp slt i16 %11, 0
  %13 = ashr i16 %11, 5
  %14 = sext i16 %13 to i32
  %15 = getelementptr inbounds nuw i8, ptr %0, i64 12
  %16 = load i32, ptr %15, align 4
  %17 = select i1 %12, i32 %16, i32 %14
  %18 = icmp slt i32 %1, 0
  %spec.select = tail call i32 @llvm.smin.i32(i32 %1, i32 %17)
  %.061 = select i1 %18, i32 0, i32 %spec.select
  %19 = icmp slt i32 %2, 0
  %20 = sub nsw i32 %17, %.061
  %spec.select69 = tail call i32 @llvm.smin.i32(i32 %2, i32 %20)
  %21 = icmp ult i32 %4, 2147483647
  %22 = ptrtoint ptr %3 to i64
  %23 = add i64 %22, 2147483647
  %24 = icmp ult ptr %3, inttoptr (i64 -2147483647 to ptr)
  %25 = select i1 %24, i64 %23, i64 4294967295
  %26 = sub i64 %25, %22
  %27 = trunc i64 %26 to i32
  %.046 = select i1 %21, i32 %4, i32 %27
  call void @llvm.lifetime.start.p0(i64 4, ptr nonnull %7) #7
  store i32 0, ptr %7, align 4, !tbaa !8
  %28 = icmp eq i32 %spec.select69, 0
  %29 = select i1 %19, i1 true, i1 %28
  br i1 %29, label %30, label %32

30:                                               ; preds = %.sink.split.i
  %31 = call i32 @u_terminateChars_77(ptr noundef %3, i32 noundef %.046, i32 noundef 0, ptr noundef nonnull %7)
  br label %88

32:                                               ; preds = %.sink.split.i
  %33 = icmp eq ptr %5, null
  br i1 %33, label %34, label %70

34:                                               ; preds = %32
  %35 = tail call ptr @ucnv_getDefaultName_77()
  %36 = load i8, ptr %35, align 1, !tbaa !6
  switch i8 %36, label %82 [
    i8 85, label %37
    i8 117, label %45
  ]

37:                                               ; preds = %34
  %38 = getelementptr inbounds nuw i8, ptr %35, i64 1
  %39 = load i8, ptr %38, align 1, !tbaa !6
  %40 = icmp eq i8 %39, 84
  br i1 %40, label %41, label %82

41:                                               ; preds = %37
  %42 = getelementptr inbounds nuw i8, ptr %35, i64 2
  %43 = load i8, ptr %42, align 1, !tbaa !6
  %44 = icmp eq i8 %43, 70
  br i1 %44, label %53, label %82

45:                                               ; preds = %34
  %46 = getelementptr inbounds nuw i8, ptr %35, i64 1
  %47 = load i8, ptr %46, align 1, !tbaa !6
  %48 = icmp eq i8 %47, 116
  br i1 %48, label %49, label %82

49:                                               ; preds = %45
  %50 = getelementptr inbounds nuw i8, ptr %35, i64 2
  %51 = load i8, ptr %50, align 1, !tbaa !6
  %52 = icmp eq i8 %51, 102
  br i1 %52, label %53, label %82

53:                                               ; preds = %49, %41
  %54 = getelementptr inbounds nuw i8, ptr %35, i64 3
  %55 = load i8, ptr %54, align 1, !tbaa !6
  switch i8 %55, label %82 [
    i8 45, label %56
    i8 56, label %64
  ]

56:                                               ; preds = %53
  %57 = getelementptr inbounds nuw i8, ptr %35, i64 4
  %58 = load i8, ptr %57, align 1, !tbaa !6
  %59 = icmp eq i8 %58, 56
  br i1 %59, label %60, label %82

60:                                               ; preds = %56
  %61 = getelementptr inbounds nuw i8, ptr %35, i64 5
  %62 = load i8, ptr %61, align 1, !tbaa !6
  %63 = icmp eq i8 %62, 0
  br i1 %63, label %68, label %82

64:                                               ; preds = %53
  %65 = getelementptr inbounds nuw i8, ptr %35, i64 4
  %66 = load i8, ptr %65, align 1, !tbaa !6
  %67 = icmp eq i8 %66, 0
  br i1 %67, label %68, label %82

68:                                               ; preds = %60, %64
  %69 = tail call noundef i32 @_ZNK6icu_7713UnicodeString6toUTF8EiiPci(ptr noundef nonnull align 8 dereferenceable(64) %0, i32 noundef %.061, i32 noundef %spec.select69, ptr noundef %3, i32 noundef %.046)
  br label %88

70:                                               ; preds = %32
  %71 = load i8, ptr %5, align 1, !tbaa !6
  %72 = icmp eq i8 %71, 0
  br i1 %72, label %73, label %85

73:                                               ; preds = %70
  %.046. = tail call i32 @llvm.smin.i32(i32 %spec.select69, i32 %.046)
  %74 = and i16 %11, 2
  %.not.i = icmp eq i16 %74, 0
  %75 = getelementptr inbounds nuw i8, ptr %0, i64 10
  %76 = getelementptr inbounds nuw i8, ptr %0, i64 24
  %77 = load ptr, ptr %76, align 8
  %78 = select i1 %.not.i, ptr %77, ptr %75
  %79 = sext i32 %.061 to i64
  %80 = getelementptr inbounds i16, ptr %78, i64 %79
  tail call void @u_UCharsToChars_77(ptr noundef %80, ptr noundef %3, i32 noundef %.046.)
  %81 = call i32 @u_terminateChars_77(ptr noundef %3, i32 noundef %.046, i32 noundef %spec.select69, ptr noundef nonnull %7)
  br label %88

82:                                               ; preds = %37, %41, %45, %49, %56, %60, %64, %34, %53
  %83 = call ptr @u_getDefaultConverter_77(ptr noundef nonnull %7)
  %84 = call noundef i32 @_ZNK6icu_7713UnicodeString9doExtractEiiPciP10UConverterR10UErrorCode(ptr noundef nonnull align 8 dereferenceable(64) %0, i32 noundef %.061, i32 noundef %spec.select69, ptr noundef %3, i32 noundef %.046, ptr noundef %83, ptr noundef nonnull align 4 dereferenceable(4) %7)
  call void @u_releaseDefaultConverter_77(ptr noundef %83)
  br label %88

85:                                               ; preds = %70
  %86 = call ptr @ucnv_open_77(ptr noundef nonnull %5, ptr noundef nonnull %7)
  %87 = call noundef i32 @_ZNK6icu_7713UnicodeString9doExtractEiiPciP10UConverterR10UErrorCode(ptr noundef nonnull align 8 dereferenceable(64) %0, i32 noundef %.061, i32 noundef %spec.select69, ptr noundef %3, i32 noundef %.046, ptr noundef %86, ptr noundef nonnull align 4 dereferenceable(4) %7)
  call void @ucnv_close_77(ptr noundef %86)
  br label %88

88:                                               ; preds = %82, %85, %68, %73, %30
  %.1 = phi i32 [ %31, %30 ], [ %69, %68 ], [ %81, %73 ], [ %87, %85 ], [ %84, %82 ]
  call void @llvm.lifetime.end.p0(i64 4, ptr nonnull %7) #7
  br label %89

89:                                               ; preds = %6, %88
  %.042 = phi i32 [ %.1, %88 ], [ 0, %6 ]
  ret i32 %.042
}